target datalayout = "e-m:e-p270:32:32-p271:32:32-p272:64:64-i64:64-i128:128-f80:128-n8:16:32:64-S128"
target triple = "x86_64-pc-linux-gnu"

%struct.SwsPass = type { ptr, ptr, i32, i32, i32, i32, i32, ptr, %struct.SwsImg, ptr, ptr, ptr }
%struct.SwsImg = type { i32, [4 x ptr], [4 x i32] }
%struct.SwsContext = type { ptr, ptr, i32, [2 x double], i32, i32, i32, i32, i32, i32, i32, i32, i32, i32, i32, i32, i32, i32, i32, i32, i32 }
%struct.SwsInternal = type { %struct.SwsContext, ptr, ptr, ptr, ptr, i32, [2 x ptr], i32, i32, ptr, i32, i32, i32, i32, i32, i32, i32, i32, i32, i32, i32, i32, i32, i32, i32, i32, i32, i32, ptr, ptr, %struct.RangeList, [3 x ptr], [2 x [4 x i32]], [2 x [4 x ptr]], i32, double, i32, ptr, ptr, i32, [2 x i32], i32, ptr, ptr, [256 x i32], [256 x i32], [256 x float], i32, i32, ptr, i32, ptr, ptr, ptr, ptr, ptr, ptr, ptr, ptr, i32, i32, i32, i32, i32, i32, ptr, ptr, i32, i32, i32, ptr, [8 x i8], [1280 x i32], [1280 x ptr], [1280 x ptr], [1280 x ptr], [176 x i32], [4 x ptr], i32, i32, i32, [4 x i32], [4 x i32], i32, i32, i32, i32, i32, i32, i32, i32, i32, i32, i64, i64, i64, i64, i64, i64, i64, i64, i64, i64, i64, [1024 x i32], [1024 x i32], i32, i64, i64, i64, i64, i64, [1024 x i32], i64, i64, [8 x i16], [8 x i32], ptr, ptr, i32, ptr, ptr, ptr, ptr, [3 x [4 x i16]], [3 x [4 x i16]], ptr, ptr, ptr, ptr, ptr, ptr, ptr, ptr, ptr, ptr, ptr, ptr, ptr, ptr, ptr, ptr, ptr, ptr, ptr, ptr, i32, i32, i64, i64, i32, ptr, i32, ptr, i32, i32, i32, i32, i32, ptr }
%struct.RangeList = type { ptr, i32, i32 }

; Function Attrs: nounwind uwtable
define internal void @run_rgb0(ptr noundef %0, ptr noundef %1, i32 noundef %2, i32 noundef %3, ptr noundef %4) #0 {
  %6 = alloca ptr, align 8
  %7 = alloca ptr, align 8
  %8 = alloca i32, align 4
  %9 = alloca i32, align 4
  %10 = alloca ptr, align 8
  %11 = alloca ptr, align 8
  %12 = alloca i32, align 4
  %13 = alloca i32, align 4
  %14 = alloca i32, align 4
  %15 = alloca i32, align 4
  %16 = alloca ptr, align 8
  %17 = alloca ptr, align 8
  %18 = alloca i32, align 4
  %19 = alloca i32, align 4
  %20 = alloca i32, align 4
  store ptr %0, ptr %6, align 8, !tbaa !59
  store ptr %1, ptr %7, align 8, !tbaa !59
  store i32 %2, ptr %8, align 4, !tbaa !9
  store i32 %3, ptr %9, align 4, !tbaa !9
  store ptr %4, ptr %10, align 8, !tbaa !11
  call void @llvm.lifetime.start.p0(i64 8, ptr %11) #11
  %21 = load ptr, ptr %10, align 8, !tbaa !11
  %22 = getelementptr inbounds nuw %struct.SwsPass, ptr %21, i32 0, i32 11
  %23 = load ptr, ptr %22, align 8, !tbaa !18
  store ptr %23, ptr %11, align 8, !tbaa !125
  call void @llvm.lifetime.start.p0(i64 4, ptr %12) #11
  %24 = load ptr, ptr %11, align 8, !tbaa !125
  %25 = getelementptr inbounds nuw %struct.SwsInternal, ptr %24, i32 0, i32 83
  %26 = load i32, ptr %25, align 4, !tbaa !139
  %27 = sub nsw i32 %26, 1
  store i32 %27, ptr %12, align 4, !tbaa !9
  call void @llvm.lifetime.start.p0(i64 4, ptr %13) #11
  %28 = load ptr, ptr %10, align 8, !tbaa !11
  %29 = getelementptr inbounds nuw %struct.SwsPass, ptr %28, i32 0, i32 3
  %30 = load i32, ptr %29, align 4, !tbaa !20
  %31 = mul nsw i32 4, %30
  store i32 %31, ptr %13, align 4, !tbaa !9
  call void @llvm.lifetime.start.p0(i64 4, ptr %14) #11
  %32 = load ptr, ptr %7, align 8, !tbaa !59
  %33 = getelementptr inbounds nuw %struct.SwsImg, ptr %32, i32 0, i32 2
  %34 = getelementptr inbounds [4 x i32], ptr %33, i64 0, i64 0
  %35 = load i32, ptr %34, align 8, !tbaa !9
  store i32 %35, ptr %14, align 4, !tbaa !9
  call void @llvm.lifetime.start.p0(i64 4, ptr %15) #11
  %36 = load ptr, ptr %6, align 8, !tbaa !59
  %37 = getelementptr inbounds nuw %struct.SwsImg, ptr %36, i32 0, i32 2
  %38 = getelementptr inbounds [4 x i32], ptr %37, i64 0, i64 0
  %39 = load i32, ptr %38, align 8, !tbaa !9
  store i32 %39, ptr %15, align 4, !tbaa !9
  call void @llvm.lifetime.start.p0(i64 8, ptr %16) #11
  %40 = load ptr, ptr %7, align 8, !tbaa !59
  %41 = getelementptr inbounds nuw %struct.SwsImg, ptr %40, i32 0, i32 1
  %42 = getelementptr inbounds [4 x ptr], ptr %41, i64 0, i64 0
  %43 = load ptr, ptr %42, align 8, !tbaa !68
  %44 = load i32, ptr %8, align 4, !tbaa !9
  %45 = load i32, ptr %14, align 4, !tbaa !9
  %46 = mul nsw i32 %44, %45
  %47 = sext i32 %46 to i64
  %48 = getelementptr inbounds i8, ptr %43, i64 %47
  store ptr %48, ptr %16, align 8, !tbaa !68
  call void @llvm.lifetime.start.p0(i64 8, ptr %17) #11
  %49 = load ptr, ptr %6, align 8, !tbaa !59
  %50 = getelementptr inbounds nuw %struct.SwsImg, ptr %49, i32 0, i32 1
  %51 = getelementptr inbounds [4 x ptr], ptr %50, i64 0, i64 0
  %52 = load ptr, ptr %51, align 8, !tbaa !68
  %53 = load i32, ptr %8, align 4, !tbaa !9
  %54 = load i32, ptr %15, align 4, !tbaa !9
  %55 = mul nsw i32 %53, %54
  %56 = sext i32 %55 to i64
  %57 = getelementptr inbounds i8, ptr %52, i64 %56
  store ptr %57, ptr %17, align 8, !tbaa !68
  call void @llvm.lifetime.start.p0(i64 4, ptr %18) #11
  store i32 0, ptr %18, align 4, !tbaa !9
  br label %58

58:                                               ; preds = %92, %5
  %59 = load i32, ptr %18, align 4, !tbaa !9
  %60 = load i32, ptr %9, align 4, !tbaa !9
  %61 = icmp slt i32 %59, %60
  br i1 %61, label %63, label %62

62:                                               ; preds = %58
  store i32 2, ptr %19, align 4
  call void @llvm.lifetime.end.p0(i64 4, ptr %18) #11
  br label %95

63:                                               ; preds = %58
  %64 = load ptr, ptr %17, align 8, !tbaa !68
  %65 = load ptr, ptr %16, align 8, !tbaa !68
  %66 = load i32, ptr %13, align 4, !tbaa !9
  %67 = sext i32 %66 to i64
  %68 = mul i64 %67, 1
  call void @llvm.memcpy.p0.p0.i64(ptr align 1 %64, ptr align 1 %65, i64 %68, i1 false)
  call void @llvm.lifetime.start.p0(i64 4, ptr %20) #11
  %69 = load i32, ptr %12, align 4, !tbaa !9
  store i32 %69, ptr %20, align 4, !tbaa !9
  br label %70

70:                                               ; preds = %80, %63
  %71 = load i32, ptr %20, align 4, !tbaa !9
  %72 = load i32, ptr %13, align 4, !tbaa !9
  %73 = icmp slt i32 %71, %72
  br i1 %73, label %75, label %74

74:                                               ; preds = %70
  store i32 5, ptr %19, align 4
  call void @llvm.lifetime.end.p0(i64 4, ptr %20) #11
  br label %83

75:                                               ; preds = %70
  %76 = load ptr, ptr %17, align 8, !tbaa !68
  %77 = load i32, ptr %20, align 4, !tbaa !9
  %78 = sext i32 %77 to i64
  %79 = getelementptr inbounds i8, ptr %76, i64 %78
  store i8 -1, ptr %79, align 1, !tbaa !53
  br label %80

80:                                               ; preds = %75
  %81 = load i32, ptr %20, align 4, !tbaa !9
  %82 = add nsw i32 %81, 4
  store i32 %82, ptr %20, align 4, !tbaa !9
  br label %70, !llvm.loop !151

83:                                               ; preds = %74
  %84 = load i32, ptr %14, align 4, !tbaa !9
  %85 = load ptr, ptr %16, align 8, !tbaa !68
  %86 = sext i32 %84 to i64
  %87 = getelementptr inbounds i8, ptr %85, i64 %86
  store ptr %87, ptr %16, align 8, !tbaa !68
  %88 = load i32, ptr %15, align 4, !tbaa !9
  %89 = load ptr, ptr %17, align 8, !tbaa !68
  %90 = sext i32 %88 to i64
  %91 = getelementptr inbounds i8, ptr %89, i64 %90
  store ptr %91, ptr %17, align 8, !tbaa !68
  br label %92

92:                                               ; preds = %83
  %93 = load i32, ptr %18, align 4, !tbaa !9
  %94 = add nsw i32 %93, 1
  store i32 %94, ptr %18, align 4, !tbaa !9
  br label %58, !llvm.loop !152

95:                                               ; preds = %62
  call void @llvm.lifetime.end.p0(i64 8, ptr %17) #11
  call void @llvm.lifetime.end.p0(i64 8, ptr %16) #11
  call void @llvm.lifetime.end.p0(i64 4, ptr %15) #11
  call void @llvm.lifetime.end.p0(i64 4, ptr %14) #11
  call void @llvm.lifetime.end.p0(i64 4, ptr %13) #11
  call void @llvm.lifetime.end.p0(i64 4, ptr %12) #11
  call void @llvm.lifetime.end.p0(i64 8, ptr %11) #11
  ret void
}