; Function Attrs: nofree norecurse nosync nounwind memory(readwrite, inaccessiblemem: none) uwtable
define internal void @run_rgb0(ptr noundef readonly captures(none) %0, ptr noundef readonly captures(none) %1, i32 noundef %2, i32 noundef %3, ptr noundef readonly captures(none) %4) #8 {
  %6 = getelementptr inbounds nuw i8, ptr %4, i64 120
  %7 = load ptr, ptr %6, align 8, !tbaa !15
  %8 = getelementptr inbounds nuw i8, ptr %7, i64 40332
  %9 = load i32, ptr %8, align 4, !tbaa !138
  %10 = add i32 %9, -1
  %11 = icmp sgt i32 %3, 0
  br i1 %11, label %.lr.ph34, label %._crit_edge35

.lr.ph34:                                         ; preds = %5
  %12 = getelementptr inbounds nuw i8, ptr %4, i64 20
  %13 = load i32, ptr %12, align 4, !tbaa !17
  %14 = shl nsw i32 %13, 2
  %15 = getelementptr inbounds nuw i8, ptr %0, i64 8
  %16 = load ptr, ptr %15, align 8, !tbaa !75
  %17 = getelementptr inbounds nuw i8, ptr %0, i64 40
  %18 = load i32, ptr %17, align 8, !tbaa !42
  %19 = mul nsw i32 %18, %2
  %20 = sext i32 %19 to i64
  %21 = getelementptr inbounds i8, ptr %16, i64 %20
  %22 = getelementptr inbounds nuw i8, ptr %1, i64 8
  %23 = load ptr, ptr %22, align 8, !tbaa !75
  %24 = getelementptr inbounds nuw i8, ptr %1, i64 40
  %25 = load i32, ptr %24, align 8, !tbaa !42
  %26 = mul nsw i32 %25, %2
  %27 = sext i32 %26 to i64
  %28 = getelementptr inbounds i8, ptr %23, i64 %27
  %29 = sext i32 %14 to i64
  %.not = icmp sgt i32 %9, %14
  %30 = sext i32 %25 to i64
  %31 = sext i32 %18 to i64
  br i1 %.not, label %.lr.ph34.split, label %.lr.ph.us.preheader

.lr.ph.us.preheader:                              ; preds = %.lr.ph34
  %32 = sext i32 %10 to i64
  br label %.lr.ph.us

.lr.ph.us:                                        ; preds = %.lr.ph.us.preheader, %._crit_edge.us
  %.02632.us = phi i32 [ %38, %._crit_edge.us ], [ 0, %.lr.ph.us.preheader ]
  %.02731.us = phi ptr [ %37, %._crit_edge.us ], [ %21, %.lr.ph.us.preheader ]
  %.02830.us = phi ptr [ %36, %._crit_edge.us ], [ %28, %.lr.ph.us.preheader ]
  tail call void @llvm.memcpy.p0.p0.i64(ptr align 1 %.02731.us, ptr align 1 %.02830.us, i64 %29, i1 false)
  br label %33

33:                                               ; preds = %.lr.ph.us, %33
  %indvars.iv = phi i64 [ %32, %.lr.ph.us ], [ %indvars.iv.next, %33 ]
  %34 = getelementptr inbounds i8, ptr %.02731.us, i64 %indvars.iv
  store i8 -1, ptr %34, align 1, !tbaa !48
  %indvars.iv.next = add nsw i64 %indvars.iv, 4
  %35 = icmp slt i64 %indvars.iv.next, %29
  br i1 %35, label %33, label %._crit_edge.us, !llvm.loop !150

._crit_edge.us:                                   ; preds = %33
  %36 = getelementptr inbounds i8, ptr %.02830.us, i64 %30
  %37 = getelementptr inbounds i8, ptr %.02731.us, i64 %31
  %38 = add nuw nsw i32 %.02632.us, 1
  %exitcond.not = icmp eq i32 %38, %3
  br i1 %exitcond.not, label %._crit_edge35, label %.lr.ph.us, !llvm.loop !151

._crit_edge35:                                    ; preds = %._crit_edge.us, %.lr.ph34.split, %5
  ret void

.lr.ph34.split:                                   ; preds = %.lr.ph34, %.lr.ph34.split
  %.02632 = phi i32 [ %41, %.lr.ph34.split ], [ 0, %.lr.ph34 ]
  %.02731 = phi ptr [ %40, %.lr.ph34.split ], [ %21, %.lr.ph34 ]
  %.02830 = phi ptr [ %39, %.lr.ph34.split ], [ %28, %.lr.ph34 ]
  tail call void @llvm.memcpy.p0.p0.i64(ptr align 1 %.02731, ptr align 1 %.02830, i64 %29, i1 false)
  %39 = getelementptr inbounds i8, ptr %.02830, i64 %30
  %40 = getelementptr inbounds i8, ptr %.02731, i64 %31
  %41 = add nuw nsw i32 %.02632, 1
  %exitcond38.not = icmp eq i32 %41, %3
  br i1 %exitcond38.not, label %._crit_edge35, label %.lr.ph34.split, !llvm.loop !151
}